target datalayout = "e-m:e-p270:32:32-p271:32:32-p272:64:64-i64:64-i128:128-f80:128-n8:16:32:64-S128"
target triple = "x86_64-pc-linux-gnu"

%struct.H5D_shared_t = type { i64, i8, i64, ptr, ptr, i64, i64, %struct.H5D_dcpl_cache_t, %struct.H5O_layout_t, i8, i32, [32 x i64], [32 x i64], [32 x i64], %struct.anon.6, %struct.H5D_append_flush_t, ptr, ptr }
%struct.H5D_dcpl_cache_t = type { %struct.H5O_fill_t, %struct.H5O_pline_t, %struct.H5O_efl_t }
%struct.H5O_fill_t = type { %struct.H5O_shared_t, i32, ptr, i64, ptr, i32, i32, i8 }
%struct.H5O_shared_t = type { i32, ptr, i32, %union.anon }
%union.anon = type { %struct.H5O_mesg_loc_t }
%struct.H5O_mesg_loc_t = type { i32, i64 }
%struct.H5O_pline_t = type { %struct.H5O_shared_t, i32, i64, i64, ptr }
%struct.H5O_efl_t = type { i64, i64, i64, ptr }
%struct.H5O_layout_t = type { i32, i32, ptr, %union.anon.0, %struct.H5O_storage_t }
%union.anon.0 = type { %struct.H5O_layout_chunk_t }
%struct.H5O_layout_chunk_t = type { i32, i8, i32, [33 x i32], i32, i32, i64, i64, [33 x i64], [33 x i64], [33 x i64], [33 x i64], %union.anon.1 }
%union.anon.1 = type { %struct.H5O_layout_chunk_earray_t }
%struct.H5O_layout_chunk_earray_t = type { %struct.anon.2, i32, [33 x i32], [33 x i64], [33 x i64] }
%struct.anon.2 = type { i8, i8, i8, i8, i8 }
%struct.H5O_storage_t = type { i32, %union.anon.4 }
%union.anon.4 = type { %struct.H5O_storage_virtual_t }
%struct.H5O_storage_virtual_t = type { %struct.H5HG_t, i64, ptr, i64, [32 x i64], i32, i64, i64, i64, i8 }
%struct.H5HG_t = type { i64, i64 }
%struct.anon.6 = type { %struct.H5D_rdcdc_t, %struct.H5D_rdcc_t }
%struct.H5D_rdcdc_t = type { ptr, i64, i64, i64, i8 }
%struct.H5D_rdcc_t = type { %struct.anon.7, i64, i64, double, ptr, ptr, ptr, i64, i32, %struct.H5D_chunk_cached_t, ptr, ptr, ptr, ptr, [32 x i64], [32 x i64], [32 x i32] }
%struct.anon.7 = type { i32, i32, i32, i32 }
%struct.H5D_chunk_cached_t = type { i8, [33 x i64], i64, i32, i64, i32 }
%struct.H5D_append_flush_t = type { i32, [32 x i64], ptr, ptr }
%struct.H5D_t = type { %struct.H5O_loc_t, %struct.H5G_name_t, ptr }
%struct.H5O_loc_t = type { ptr, i64, i8 }
%struct.H5G_name_t = type { ptr, ptr, i32 }
%struct.H5D_layout_ops_t = type { ptr, ptr, ptr, ptr, ptr, ptr, ptr, ptr, ptr, ptr, ptr, ptr, ptr }

@H5D_init_g = external global i8, align 1
@H5_libterm_g = external global i8, align 1
@.str.2 = private unnamed_addr constant [100 x i8] c"generated/home/dtcxzyw/WorkSpace/Projects/compilers/llvm-opt-benchmark/bench/hdf5/hdf5/src/H5Dint.c\00", align 1
@H5E_DATASET_g = external global i64, align 8
@H5E_CANTGET_g = external global i64, align 8
@__func__.H5D__get_space_status = private unnamed_addr constant [22 x i8] c"H5D__get_space_status\00", align 1
@.str.17 = private unnamed_addr constant [57 x i8] c"unable to retrieve number of allocated chunks in dataset\00", align 1

; Function Attrs: nounwind uwtable
define i32 @H5D__get_space_status(ptr noundef %0, ptr noundef %1) #0 {
  %3 = alloca i32, align 4
  %4 = alloca ptr, align 8
  %5 = alloca ptr, align 8
  %6 = alloca i32, align 4
  %7 = alloca i8, align 1
  %8 = alloca i64, align 8
  %9 = alloca i64, align 8
  %10 = alloca i32, align 4
  store ptr %0, ptr %4, align 8, !tbaa !49
  store ptr %1, ptr %5, align 8, !tbaa !60
  call void @llvm.lifetime.start.p0(i64 4, ptr %6) #12
  store i32 0, ptr %6, align 4, !tbaa !3
  call void @llvm.lifetime.start.p0(i64 1, ptr %7) #12
  store i8 0, ptr %7, align 1, !tbaa !7
  %11 = load i8, ptr @H5D_init_g, align 1, !tbaa !7, !range !9, !noundef !10
  %12 = trunc i8 %11 to i1
  br i1 %12, label %17, label %13

13:                                               ; preds = %2
  %14 = load i8, ptr @H5_libterm_g, align 1, !tbaa !7, !range !9, !noundef !10
  %15 = trunc i8 %14 to i1
  %16 = xor i1 %15, true
  br label %17

17:                                               ; preds = %13, %2
  %18 = phi i1 [ true, %2 ], [ %16, %13 ]
  %19 = xor i1 %18, true
  %20 = xor i1 %19, true
  %21 = zext i1 %20 to i32
  %22 = sext i32 %21 to i64
  %23 = call i64 @llvm.expect.i64(i64 %22, i64 1)
  %24 = icmp ne i64 %23, 0
  br i1 %24, label %25, label %108

25:                                               ; preds = %17
  %26 = load ptr, ptr %4, align 8, !tbaa !49
  %27 = getelementptr inbounds nuw %struct.H5D_t, ptr %26, i32 0, i32 2
  %28 = load ptr, ptr %27, align 8, !tbaa !61
  %29 = getelementptr inbounds nuw %struct.H5D_shared_t, ptr %28, i32 0, i32 8
  %30 = getelementptr inbounds nuw %struct.H5O_layout_t, ptr %29, i32 0, i32 0
  %31 = load i32, ptr %30, align 8, !tbaa !67
  %32 = icmp eq i32 %31, 2
  br i1 %32, label %33, label %86

33:                                               ; preds = %25
  call void @llvm.lifetime.start.p0(i64 8, ptr %8) #12
  %34 = load ptr, ptr %4, align 8, !tbaa !49
  %35 = getelementptr inbounds nuw %struct.H5D_t, ptr %34, i32 0, i32 2
  %36 = load ptr, ptr %35, align 8, !tbaa !61
  %37 = getelementptr inbounds nuw %struct.H5D_shared_t, ptr %36, i32 0, i32 8
  %38 = getelementptr inbounds nuw %struct.H5O_layout_t, ptr %37, i32 0, i32 3
  %39 = getelementptr inbounds nuw %struct.H5O_layout_chunk_t, ptr %38, i32 0, i32 6
  %40 = load i64, ptr %39, align 8, !tbaa !68
  store i64 %40, ptr %8, align 8, !tbaa !11
  call void @llvm.lifetime.start.p0(i64 8, ptr %9) #12
  store i64 0, ptr %9, align 8, !tbaa !11
  %41 = load ptr, ptr %4, align 8, !tbaa !49
  %42 = load ptr, ptr %4, align 8, !tbaa !49
  %43 = getelementptr inbounds nuw %struct.H5D_t, ptr %42, i32 0, i32 2
  %44 = load ptr, ptr %43, align 8, !tbaa !61
  %45 = getelementptr inbounds nuw %struct.H5D_shared_t, ptr %44, i32 0, i32 4
  %46 = load ptr, ptr %45, align 8, !tbaa !69
  %47 = call i32 @H5D__get_num_chunks(ptr noundef %41, ptr noundef %46, ptr noundef %9)
  %48 = icmp slt i32 %47, 0
  br i1 %48, label %49, label %68

49:                                               ; preds = %33
  br label %50

50:                                               ; preds = %49
  br label %51

51:                                               ; preds = %50
  br label %52

52:                                               ; preds = %51
  %53 = load i64, ptr @H5E_DATASET_g, align 8, !tbaa !11
  %54 = load i64, ptr @H5E_CANTGET_g, align 8, !tbaa !11
  %55 = call i32 (ptr, ptr, i32, i64, i64, ptr, ...) @H5E_printf_stack(ptr noundef @.str.2, ptr noundef @__func__.H5D__get_space_status, i32 noundef 433, i64 noundef %53, i64 noundef %54, ptr noundef @.str.17)
  br label %56

56:                                               ; preds = %52
  br label %57

57:                                               ; preds = %56
  store i8 1, ptr %7, align 1, !tbaa !7
  %58 = load i8, ptr %7, align 1, !tbaa !7, !range !9, !noundef !10
  %59 = trunc i8 %58 to i1
  %60 = zext i1 %59 to i8
  store i8 %60, ptr %7, align 1, !tbaa !7
  br label %61

61:                                               ; preds = %57
  br label %62

62:                                               ; preds = %61
  br label %63

63:                                               ; preds = %62
  store i32 -1, ptr %6, align 4, !tbaa !3
  store i32 10, ptr %10, align 4
  br label %83

64:                                               ; No predecessors!
  br label %65

65:                                               ; preds = %64
  br label %66

66:                                               ; preds = %65
  br label %67

67:                                               ; preds = %66
  br label %68

68:                                               ; preds = %67, %33
  %69 = load i64, ptr %9, align 8, !tbaa !11
  %70 = icmp eq i64 %69, 0
  br i1 %70, label %71, label %73

71:                                               ; preds = %68
  %72 = load ptr, ptr %5, align 8, !tbaa !60
  store i32 0, ptr %72, align 4, !tbaa !3
  br label %82

73:                                               ; preds = %68
  %74 = load i64, ptr %9, align 8, !tbaa !11
  %75 = load i64, ptr %8, align 8, !tbaa !11
  %76 = icmp eq i64 %74, %75
  br i1 %76, label %77, label %79

77:                                               ; preds = %73
  %78 = load ptr, ptr %5, align 8, !tbaa !60
  store i32 2, ptr %78, align 4, !tbaa !3
  br label %81

79:                                               ; preds = %73
  %80 = load ptr, ptr %5, align 8, !tbaa !60
  store i32 1, ptr %80, align 4, !tbaa !3
  br label %81

81:                                               ; preds = %79, %77
  br label %82

82:                                               ; preds = %81, %71
  store i32 0, ptr %10, align 4
  br label %83

83:                                               ; preds = %63, %82
  call void @llvm.lifetime.end.p0(i64 8, ptr %9) #12
  call void @llvm.lifetime.end.p0(i64 8, ptr %8) #12
  %84 = load i32, ptr %10, align 4
  switch i32 %84, label %110 [
    i32 0, label %85
    i32 10, label %107
  ]

85:                                               ; preds = %83
  br label %106

86:                                               ; preds = %25
  %87 = load ptr, ptr %4, align 8, !tbaa !49
  %88 = getelementptr inbounds nuw %struct.H5D_t, ptr %87, i32 0, i32 2
  %89 = load ptr, ptr %88, align 8, !tbaa !61
  %90 = getelementptr inbounds nuw %struct.H5D_shared_t, ptr %89, i32 0, i32 8
  %91 = getelementptr inbounds nuw %struct.H5O_layout_t, ptr %90, i32 0, i32 2
  %92 = load ptr, ptr %91, align 8, !tbaa !70
  %93 = getelementptr inbounds nuw %struct.H5D_layout_ops_t, ptr %92, i32 0, i32 2
  %94 = load ptr, ptr %93, align 8, !tbaa !71
  %95 = load ptr, ptr %4, align 8, !tbaa !49
  %96 = getelementptr inbounds nuw %struct.H5D_t, ptr %95, i32 0, i32 2
  %97 = load ptr, ptr %96, align 8, !tbaa !61
  %98 = getelementptr inbounds nuw %struct.H5D_shared_t, ptr %97, i32 0, i32 8
  %99 = getelementptr inbounds nuw %struct.H5O_layout_t, ptr %98, i32 0, i32 4
  %100 = call zeroext i1 %94(ptr noundef %99)
  br i1 %100, label %101, label %103

101:                                              ; preds = %86
  %102 = load ptr, ptr %5, align 8, !tbaa !60
  store i32 2, ptr %102, align 4, !tbaa !3
  br label %105

103:                                              ; preds = %86
  %104 = load ptr, ptr %5, align 8, !tbaa !60
  store i32 0, ptr %104, align 4, !tbaa !3
  br label %105

105:                                              ; preds = %103, %101
  br label %106

106:                                              ; preds = %105, %85
  br label %107

107:                                              ; preds = %106, %83
  br label %108

108:                                              ; preds = %107, %17
  %109 = load i32, ptr %6, align 4, !tbaa !3
  store i32 %109, ptr %3, align 4
  store i32 1, ptr %10, align 4
  br label %110

110:                                              ; preds = %108, %83
  call void @llvm.lifetime.end.p0(i64 1, ptr %7) #12
  call void @llvm.lifetime.end.p0(i64 4, ptr %6) #12
  %111 = load i32, ptr %3, align 4
  ret i32 %111
}