; Function Attrs: nounwind uwtable
define range(i32 -1, 1) i32 @H5D__get_space_status(ptr noundef %0, ptr noundef writeonly captures(none) %1) local_unnamed_addr #0 {
  %3 = alloca i64, align 8
  %4 = load i8, ptr @H5D_init_g, align 1, !tbaa !3, !range !7, !noundef !8
  %5 = trunc nuw i8 %4 to i1
  %6 = load i8, ptr @H5_libterm_g, align 1, !range !7
  %7 = trunc nuw i8 %6 to i1
  %8 = xor i1 %7, true
  %9 = select i1 %5, i1 true, i1 %8
  br i1 %9, label %10, label %45, !prof !9

10:                                               ; preds = %2
  %11 = getelementptr inbounds nuw i8, ptr %0, i64 48
  %12 = load ptr, ptr %11, align 8, !tbaa !52
  %13 = getelementptr inbounds nuw i8, ptr %12, i64 248
  %14 = load i32, ptr %13, align 8, !tbaa !58
  %15 = icmp eq i32 %14, 2
  br i1 %15, label %16, label %36

16:                                               ; preds = %10
  %17 = getelementptr inbounds nuw i8, ptr %12, i64 416
  %18 = load i64, ptr %17, align 8, !tbaa !59
  call void @llvm.lifetime.start.p0(i64 8, ptr nonnull %3) #12
  store i64 0, ptr %3, align 8, !tbaa !10
  %19 = getelementptr inbounds nuw i8, ptr %12, i64 32
  %20 = load ptr, ptr %19, align 8, !tbaa !60
  %21 = call i32 @H5D__get_num_chunks(ptr noundef nonnull %0, ptr noundef %20, ptr noundef nonnull %3) #12
  %22 = icmp slt i32 %21, 0
  br i1 %22, label %23, label %27

23:                                               ; preds = %16
  %24 = load i64, ptr @H5E_DATASET_g, align 8, !tbaa !10
  %25 = load i64, ptr @H5E_CANTGET_g, align 8, !tbaa !10
  %26 = call i32 (ptr, ptr, i32, i64, i64, ptr, ...) @H5E_printf_stack(ptr noundef nonnull @.str.2, ptr noundef nonnull @__func__.H5D__get_space_status, i32 noundef 433, i64 noundef %24, i64 noundef %25, ptr noundef nonnull @.str.17) #12
  br label %35

27:                                               ; preds = %16
  %28 = load i64, ptr %3, align 8, !tbaa !10
  %29 = icmp eq i64 %28, 0
  br i1 %29, label %30, label %31

30:                                               ; preds = %27
  store i32 0, ptr %1, align 4, !tbaa !61
  br label %35

31:                                               ; preds = %27
  %32 = icmp eq i64 %28, %18
  br i1 %32, label %33, label %34

33:                                               ; preds = %31
  store i32 2, ptr %1, align 4, !tbaa !61
  br label %35

34:                                               ; preds = %31
  store i32 1, ptr %1, align 4, !tbaa !61
  br label %35

35:                                               ; preds = %30, %34, %33, %23
  %.1 = phi i32 [ -1, %23 ], [ 0, %33 ], [ 0, %34 ], [ 0, %30 ]
  call void @llvm.lifetime.end.p0(i64 8, ptr nonnull %3) #12
  br label %45

36:                                               ; preds = %10
  %37 = getelementptr inbounds nuw i8, ptr %12, i64 256
  %38 = load ptr, ptr %37, align 8, !tbaa !62
  %39 = getelementptr inbounds nuw i8, ptr %38, i64 16
  %40 = load ptr, ptr %39, align 8, !tbaa !63
  %41 = getelementptr inbounds nuw i8, ptr %12, i64 2160
  %42 = tail call zeroext i1 %40(ptr noundef nonnull %41) #12
  br i1 %42, label %43, label %44

43:                                               ; preds = %36
  store i32 2, ptr %1, align 4, !tbaa !61
  br label %45

44:                                               ; preds = %36
  store i32 0, ptr %1, align 4, !tbaa !61
  br label %45

45:                                               ; preds = %35, %2, %44, %43
  %.015 = phi i32 [ %.1, %35 ], [ 0, %43 ], [ 0, %44 ], [ 0, %2 ]
  ret i32 %.015
}